target datalayout = "e-m:e-p270:32:32-p271:32:32-p272:64:64-i64:64-i128:128-f80:128-n8:16:32:64-S128"
target triple = "x86_64-pc-linux-gnu"

; Function Attrs: mustprogress nounwind uwtable
define hidden noundef i32 @_Z8ntz_corej(i32 noundef %0) #4 {
  %2 = alloca i32, align 4
  store i32 %0, ptr %2, align 4, !tbaa !3
  %3 = load i32, ptr %2, align 4, !tbaa !3
  %4 = call i32 @llvm.cttz.i32(i32 %3, i1 true)
  ret i32 %4
}

; Function Attrs: mustprogress nounwind uwtable
define hidden noundef i32 @_Z3ntzjPKj(i32 noundef %0, ptr noundef %1) #4 {
  %3 = alloca i32, align 4
  %4 = alloca i32, align 4
  %5 = alloca ptr, align 8
  %6 = alloca i32, align 4
  %7 = alloca i32, align 4
  %8 = alloca i32, align 4
  %9 = alloca i32, align 4
  store i32 %0, ptr %4, align 4, !tbaa !3
  store ptr %1, ptr %5, align 8, !tbaa !7
  call void @llvm.lifetime.start.p0(i64 4, ptr %6) #3
  store i32 0, ptr %6, align 4, !tbaa !3
  call void @llvm.lifetime.start.p0(i64 4, ptr %7) #3
  store i32 0, ptr %7, align 4, !tbaa !3
  br label %10

10:                                               ; preds = %35, %2
  %11 = load i32, ptr %7, align 4, !tbaa !3
  %12 = load i32, ptr %4, align 4, !tbaa !3
  %13 = icmp ult i32 %11, %12
  br i1 %13, label %15, label %14

14:                                               ; preds = %10
  store i32 2, ptr %8, align 4
  br label %38

15:                                               ; preds = %10
  call void @llvm.lifetime.start.p0(i64 4, ptr %9) #3
  %16 = load ptr, ptr %5, align 8, !tbaa !7
  %17 = load i32, ptr %7, align 4, !tbaa !3
  %18 = zext i32 %17 to i64
  %19 = getelementptr inbounds nuw i32, ptr %16, i64 %18
  %20 = load i32, ptr %19, align 4, !tbaa !3
  store i32 %20, ptr %9, align 4, !tbaa !3
  %21 = load i32, ptr %9, align 4, !tbaa !3
  %22 = icmp eq i32 %21, 0
  br i1 %22, label %23, label %26

23:                                               ; preds = %15
  %24 = load i32, ptr %6, align 4, !tbaa !3
  %25 = add i32 %24, 32
  store i32 %25, ptr %6, align 4, !tbaa !3
  br label %31

26:                                               ; preds = %15
  %27 = load i32, ptr %6, align 4, !tbaa !3
  %28 = load i32, ptr %9, align 4, !tbaa !3
  %29 = call noundef i32 @_Z8ntz_corej(i32 noundef %28)
  %30 = add i32 %27, %29
  store i32 %30, ptr %3, align 4
  store i32 1, ptr %8, align 4
  br label %32

31:                                               ; preds = %23
  store i32 0, ptr %8, align 4
  br label %32

32:                                               ; preds = %31, %26
  call void @llvm.lifetime.end.p0(i64 4, ptr %9) #3
  %33 = load i32, ptr %8, align 4
  switch i32 %33, label %38 [
    i32 0, label %34
  ]

34:                                               ; preds = %32
  br label %35

35:                                               ; preds = %34
  %36 = load i32, ptr %7, align 4, !tbaa !3
  %37 = add i32 %36, 1
  store i32 %37, ptr %7, align 4, !tbaa !3
  br label %10, !llvm.loop !12

38:                                               ; preds = %32, %14
  call void @llvm.lifetime.end.p0(i64 4, ptr %7) #3
  %39 = load i32, ptr %8, align 4
  switch i32 %39, label %42 [
    i32 2, label %40
  ]

40:                                               ; preds = %38
  %41 = load i32, ptr %6, align 4, !tbaa !3
  store i32 %41, ptr %3, align 4
  store i32 1, ptr %8, align 4
  br label %42

42:                                               ; preds = %40, %38
  call void @llvm.lifetime.end.p0(i64 4, ptr %6) #3
  %43 = load i32, ptr %3, align 4
  ret i32 %43
}