; Function Attrs: mustprogress nofree norecurse nosync nounwind willreturn memory(argmem: read) uwtable
define hidden noundef i32 @_Z3ntzjPKj(i32 noundef %0, ptr noundef readonly captures(none) %1) local_unnamed_addr #5 {
  %.not25.not = icmp eq i32 %0, 0
  br i1 %.not25.not, label %.loopexit, label %.lr.ph.preheader

.lr.ph.preheader:                                 ; preds = %2
  %3 = shl i32 %0, 5
  %wide.trip.count = zext i32 %0 to i64
  br label %.lr.ph

.lr.ph:                                           ; preds = %.lr.ph.preheader, %10
  %indvars.iv = phi i64 [ 0, %.lr.ph.preheader ], [ %indvars.iv.next, %10 ]
  %.01626 = phi i32 [ 0, %.lr.ph.preheader ], [ %11, %10 ]
  %4 = getelementptr inbounds nuw i32, ptr %1, i64 %indvars.iv
  %5 = load i32, ptr %4, align 4, !tbaa !3
  %6 = icmp eq i32 %5, 0
  br i1 %6, label %10, label %7

7:                                                ; preds = %.lr.ph
  %8 = tail call noundef range(i32 0, 32) i32 @llvm.cttz.i32(i32 %5, i1 true)
  %9 = or disjoint i32 %8, %.01626
  br label %.loopexit

10:                                               ; preds = %.lr.ph
  %11 = add i32 %.01626, 32
  %indvars.iv.next = add nuw nsw i64 %indvars.iv, 1
  %exitcond.not = icmp eq i64 %indvars.iv.next, %wide.trip.count
  br i1 %exitcond.not, label %.loopexit, label %.lr.ph, !llvm.loop !9

.loopexit:                                        ; preds = %10, %2, %7
  %spec.select = phi i32 [ %9, %7 ], [ 0, %2 ], [ %3, %10 ]
  ret i32 %spec.select
}